; Function Attrs: nounwind uwtable
define internal ptr @_testcapi_exc_set_object_fetch(ptr readnone captures(none) %0, ptr noundef readonly captures(none) %1, i64 noundef %2) #0 {
  %4 = alloca ptr, align 8
  %5 = alloca ptr, align 8
  %6 = alloca ptr, align 8
  %or.cond = icmp eq i64 %2, 2
  br i1 %or.cond, label %9, label %7

7:                                                ; preds = %3
  %8 = tail call i32 @_PyArg_CheckPositional(ptr noundef nonnull @.str.11, i64 noundef %2, i64 noundef 2, i64 noundef 2) #8
  %.not = icmp eq i32 %8, 0
  br i1 %.not, label %36, label %9

9:                                                ; preds = %3, %7
  %10 = load ptr, ptr %1, align 8, !tbaa !3
  %11 = getelementptr i8, ptr %1, i64 8
  %12 = load ptr, ptr %11, align 8, !tbaa !3
  call void @llvm.lifetime.start.p0(i64 8, ptr nonnull %4) #8
  store ptr @uninitialized, ptr %4, align 8, !tbaa !3
  call void @llvm.lifetime.start.p0(i64 8, ptr nonnull %5) #8
  store ptr @uninitialized, ptr %5, align 8, !tbaa !3
  call void @llvm.lifetime.start.p0(i64 8, ptr nonnull %6) #8
  store ptr @uninitialized, ptr %6, align 8, !tbaa !3
  tail call void @PyErr_SetObject(ptr noundef %10, ptr noundef %12) #8
  call void @PyErr_Fetch(ptr noundef nonnull %4, ptr noundef nonnull %5, ptr noundef nonnull %6) #8
  %13 = load ptr, ptr %4, align 8, !tbaa !3
  %.not.i = icmp eq ptr %13, @uninitialized
  br i1 %.not.i, label %14, label %15

14:                                               ; preds = %9
  call void @__assert_fail(ptr noundef nonnull @.str.52, ptr noundef nonnull @.str.35, i32 noundef 133, ptr noundef nonnull @__PRETTY_FUNCTION__._testcapi_exc_set_object_fetch_impl) #9
  unreachable

15:                                               ; preds = %9
  %16 = load ptr, ptr %5, align 8, !tbaa !3
  %.not2.i = icmp eq ptr %16, @uninitialized
  br i1 %.not2.i, label %17, label %18

17:                                               ; preds = %15
  call void @__assert_fail(ptr noundef nonnull @.str.53, ptr noundef nonnull @.str.35, i32 noundef 134, ptr noundef nonnull @__PRETTY_FUNCTION__._testcapi_exc_set_object_fetch_impl) #9
  unreachable

18:                                               ; preds = %15
  %19 = load ptr, ptr %6, align 8, !tbaa !3
  %.not3.i = icmp eq ptr %19, @uninitialized
  br i1 %.not3.i, label %20, label %21

20:                                               ; preds = %18
  call void @__assert_fail(ptr noundef nonnull @.str.54, ptr noundef nonnull @.str.35, i32 noundef 135, ptr noundef nonnull @__PRETTY_FUNCTION__._testcapi_exc_set_object_fetch_impl) #9
  unreachable

21:                                               ; preds = %18
  %.not.i.i = icmp eq ptr %13, null
  br i1 %.not.i.i, label %Py_XDECREF.exit.i, label %22

22:                                               ; preds = %21
  %23 = load i32, ptr %13, align 8, !tbaa !20
  %.not.i.i.i = icmp sgt i32 %23, -1
  br i1 %.not.i.i.i, label %24, label %Py_XDECREF.exitthread-pre-split.i

24:                                               ; preds = %22
  %25 = add nsw i32 %23, -1
  store i32 %25, ptr %13, align 8, !tbaa !20
  %26 = icmp eq i32 %25, 0
  br i1 %26, label %27, label %Py_XDECREF.exitthread-pre-split.i

27:                                               ; preds = %24
  call void @_Py_Dealloc(ptr noundef nonnull %13) #8
  br label %Py_XDECREF.exitthread-pre-split.i

Py_XDECREF.exitthread-pre-split.i:                ; preds = %27, %24, %22
  %.pr.i = load ptr, ptr %6, align 8, !tbaa !3
  br label %Py_XDECREF.exit.i

Py_XDECREF.exit.i:                                ; preds = %Py_XDECREF.exitthread-pre-split.i, %21
  %28 = phi ptr [ %.pr.i, %Py_XDECREF.exitthread-pre-split.i ], [ %19, %21 ]
  %.not.i4.i = icmp eq ptr %28, null
  br i1 %.not.i4.i, label %_testcapi_exc_set_object_fetch_impl.exit, label %29

29:                                               ; preds = %Py_XDECREF.exit.i
  %30 = load i32, ptr %28, align 8, !tbaa !20
  %.not.i.i5.i = icmp sgt i32 %30, -1
  br i1 %.not.i.i5.i, label %31, label %_testcapi_exc_set_object_fetch_impl.exit

31:                                               ; preds = %29
  %32 = add nsw i32 %30, -1
  store i32 %32, ptr %28, align 8, !tbaa !20
  %33 = icmp eq i32 %32, 0
  br i1 %33, label %34, label %_testcapi_exc_set_object_fetch_impl.exit

34:                                               ; preds = %31
  call void @_Py_Dealloc(ptr noundef nonnull %28) #8
  br label %_testcapi_exc_set_object_fetch_impl.exit

_testcapi_exc_set_object_fetch_impl.exit:         ; preds = %Py_XDECREF.exit.i, %29, %31, %34
  %35 = load ptr, ptr %5, align 8, !tbaa !3
  call void @llvm.lifetime.end.p0(i64 8, ptr nonnull %6) #8
  call void @llvm.lifetime.end.p0(i64 8, ptr nonnull %5) #8
  call void @llvm.lifetime.end.p0(i64 8, ptr nonnull %4) #8
  br label %36

36:                                               ; preds = %7, %_testcapi_exc_set_object_fetch_impl.exit
  %.0 = phi ptr [ %35, %_testcapi_exc_set_object_fetch_impl.exit ], [ null, %7 ]
  ret ptr %.0
}